target datalayout = "e-m:e-p270:32:32-p271:32:32-p272:64:64-i64:64-i128:128-f80:128-n8:16:32:64-S128"
target triple = "x86_64-unknown-linux-gnu"

@.str.1 = private unnamed_addr constant [23 x i8] c"../qemu/block/stream.c\00", align 1
@.str.15 = private unnamed_addr constant [17 x i8] c"bytes < SIZE_MAX\00", align 1
@__PRETTY_FUNCTION__.stream_populate = private unnamed_addr constant [55 x i8] c"int stream_populate(BlockBackend *, int64_t, uint64_t)\00", align 1

; Function Attrs: nounwind sspstrong uwtable
define internal i32 @stream_populate(ptr noundef %blk, i64 noundef %offset, i64 noundef %bytes) #0 {
entry:
  %blk.addr = alloca ptr, align 8
  %offset.addr = alloca i64, align 8
  %bytes.addr = alloca i64, align 8
  store ptr %blk, ptr %blk.addr, align 8
  store i64 %offset, ptr %offset.addr, align 8
  store i64 %bytes, ptr %bytes.addr, align 8
  %0 = load i64, ptr %bytes.addr, align 8
  %cmp = icmp ult i64 %0, -1
  br i1 %cmp, label %if.then, label %if.else

if.then:                                          ; preds = %entry
  br label %if.end

if.else:                                          ; preds = %entry
  call void @__assert_fail(ptr noundef @.str.15, ptr noundef @.str.1, i32 noundef 48, ptr noundef @__PRETTY_FUNCTION__.stream_populate) #4
  unreachable

if.end:                                           ; preds = %if.then
  %1 = load ptr, ptr %blk.addr, align 8
  %2 = load i64, ptr %offset.addr, align 8
  %3 = load i64, ptr %bytes.addr, align 8
  %call = call i32 @blk_co_preadv(ptr noundef %1, i64 noundef %2, i64 noundef %3, ptr noundef null, i32 noundef 512)
  ret i32 %call
}