; Function Attrs: nounwind sspstrong uwtable
define internal i32 @stream_populate(ptr noundef %blk, i64 noundef %offset, i64 noundef %bytes) #0 {
entry:
  %cmp.not = icmp eq i64 %bytes, -1
  br i1 %cmp.not, label %if.else, label %if.end

if.else:                                          ; preds = %entry
  tail call void @__assert_fail(ptr noundef nonnull @.str.15, ptr noundef nonnull @.str.1, i32 noundef 48, ptr noundef nonnull @__PRETTY_FUNCTION__.stream_populate) #6
  unreachable

if.end:                                           ; preds = %entry
  %call = tail call i32 @blk_co_preadv(ptr noundef %blk, i64 noundef %offset, i64 noundef %bytes, ptr noundef null, i32 noundef 512) #5
  ret i32 %call
}